target datalayout = "e-m:e-p270:32:32-p271:32:32-p272:64:64-i64:64-i128:128-f80:128-n8:16:32:64-S128"
target triple = "x86_64-pc-linux-gnu"

%struct.H5FD_splitter_fapl_t = type { i64, i64, [4097 x i8], [4097 x i8], i8 }

@H5FD_init_g = external global i8, align 1
@H5_libterm_g = external global i8, align 1
@.str = private unnamed_addr constant [106 x i8] c"generated/home/dtcxzyw/WorkSpace/Projects/compilers/llvm-opt-benchmark/bench/hdf5/hdf5/src/H5FDsplitter.c\00", align 1
@H5E_VFL_g = external global i64, align 8
@__func__.H5FD__splitter_fapl_free = private unnamed_addr constant [25 x i8] c"H5FD__splitter_fapl_free\00", align 1
@H5E_CANTDEC_g = external global i64, align 8
@.str.23 = private unnamed_addr constant [24 x i8] c"can't close R/W FAPL ID\00", align 1
@.str.24 = private unnamed_addr constant [24 x i8] c"can't close W/O FAPL ID\00", align 1
@H5_H5FD_splitter_fapl_t_reg_free_list = internal global { i8, [3 x i8], i32, i32, [4 x i8], ptr, i64, ptr } { i8 0, [3 x i8] zeroinitializer, i32 0, i32 0, [4 x i8] zeroinitializer, ptr @.str.74, i64 8216, ptr null }, align 8

; Function Attrs: nounwind uwtable
define internal i32 @H5FD__splitter_fapl_free(ptr noundef %0) #0 {
  %2 = alloca ptr, align 8
  %3 = alloca ptr, align 8
  %4 = alloca i32, align 4
  %5 = alloca i8, align 1
  store ptr %0, ptr %2, align 8, !tbaa !47
  call void @llvm.lifetime.start.p0(i64 8, ptr %3) #10
  %6 = load ptr, ptr %2, align 8, !tbaa !47
  store ptr %6, ptr %3, align 8, !tbaa !16
  call void @llvm.lifetime.start.p0(i64 4, ptr %4) #10
  store i32 0, ptr %4, align 4, !tbaa !3
  call void @llvm.lifetime.start.p0(i64 1, ptr %5) #10
  store i8 0, ptr %5, align 1, !tbaa !7
  %7 = load i8, ptr @H5FD_init_g, align 1, !tbaa !7, !range !9, !noundef !10
  %8 = trunc i8 %7 to i1
  br i1 %8, label %13, label %9

9:                                                ; preds = %1
  %10 = load i8, ptr @H5_libterm_g, align 1, !tbaa !7, !range !9, !noundef !10
  %11 = trunc i8 %10 to i1
  %12 = xor i1 %11, true
  br label %13

13:                                               ; preds = %9, %1
  %14 = phi i1 [ true, %1 ], [ %12, %9 ]
  %15 = xor i1 %14, true
  %16 = xor i1 %15, true
  %17 = zext i1 %16 to i32
  %18 = sext i32 %17 to i64
  %19 = call i64 @llvm.expect.i64(i64 %18, i64 1)
  %20 = icmp ne i64 %19, 0
  br i1 %20, label %21, label %75

21:                                               ; preds = %13
  %22 = load ptr, ptr %3, align 8, !tbaa !16
  %23 = getelementptr inbounds nuw %struct.H5FD_splitter_fapl_t, ptr %22, i32 0, i32 0
  %24 = load i64, ptr %23, align 8, !tbaa !34
  %25 = call i32 @H5I_dec_ref(i64 noundef %24)
  %26 = icmp slt i32 %25, 0
  br i1 %26, label %27, label %46

27:                                               ; preds = %21
  br label %28

28:                                               ; preds = %27
  br label %29

29:                                               ; preds = %28
  br label %30

30:                                               ; preds = %29
  %31 = load i64, ptr @H5E_VFL_g, align 8, !tbaa !11
  %32 = load i64, ptr @H5E_CANTDEC_g, align 8, !tbaa !11
  %33 = call i32 (ptr, ptr, i32, i64, i64, ptr, ...) @H5E_printf_stack(ptr noundef @.str, ptr noundef @__func__.H5FD__splitter_fapl_free, i32 noundef 740, i64 noundef %31, i64 noundef %32, ptr noundef @.str.23)
  br label %34

34:                                               ; preds = %30
  br label %35

35:                                               ; preds = %34
  store i8 1, ptr %5, align 1, !tbaa !7
  %36 = load i8, ptr %5, align 1, !tbaa !7, !range !9, !noundef !10
  %37 = trunc i8 %36 to i1
  %38 = zext i1 %37 to i8
  store i8 %38, ptr %5, align 1, !tbaa !7
  br label %39

39:                                               ; preds = %35
  br label %40

40:                                               ; preds = %39
  br label %41

41:                                               ; preds = %40
  store i32 -1, ptr %4, align 4, !tbaa !3
  br label %74

42:                                               ; No predecessors!
  br label %43

43:                                               ; preds = %42
  br label %44

44:                                               ; preds = %43
  br label %45

45:                                               ; preds = %44
  br label %46

46:                                               ; preds = %45, %21
  %47 = load ptr, ptr %3, align 8, !tbaa !16
  %48 = getelementptr inbounds nuw %struct.H5FD_splitter_fapl_t, ptr %47, i32 0, i32 1
  %49 = load i64, ptr %48, align 8, !tbaa !35
  %50 = call i32 @H5I_dec_ref(i64 noundef %49)
  %51 = icmp slt i32 %50, 0
  br i1 %51, label %52, label %71

52:                                               ; preds = %46
  br label %53

53:                                               ; preds = %52
  br label %54

54:                                               ; preds = %53
  br label %55

55:                                               ; preds = %54
  %56 = load i64, ptr @H5E_VFL_g, align 8, !tbaa !11
  %57 = load i64, ptr @H5E_CANTDEC_g, align 8, !tbaa !11
  %58 = call i32 (ptr, ptr, i32, i64, i64, ptr, ...) @H5E_printf_stack(ptr noundef @.str, ptr noundef @__func__.H5FD__splitter_fapl_free, i32 noundef 742, i64 noundef %56, i64 noundef %57, ptr noundef @.str.24)
  br label %59

59:                                               ; preds = %55
  br label %60

60:                                               ; preds = %59
  store i8 1, ptr %5, align 1, !tbaa !7
  %61 = load i8, ptr %5, align 1, !tbaa !7, !range !9, !noundef !10
  %62 = trunc i8 %61 to i1
  %63 = zext i1 %62 to i8
  store i8 %63, ptr %5, align 1, !tbaa !7
  br label %64

64:                                               ; preds = %60
  br label %65

65:                                               ; preds = %64
  br label %66

66:                                               ; preds = %65
  store i32 -1, ptr %4, align 4, !tbaa !3
  br label %74

67:                                               ; No predecessors!
  br label %68

68:                                               ; preds = %67
  br label %69

69:                                               ; preds = %68
  br label %70

70:                                               ; preds = %69
  br label %71

71:                                               ; preds = %70, %46
  %72 = load ptr, ptr %3, align 8, !tbaa !16
  %73 = call ptr @H5FL_reg_free(ptr noundef @H5_H5FD_splitter_fapl_t_reg_free_list, ptr noundef %72)
  store ptr %73, ptr %3, align 8, !tbaa !16
  br label %74

74:                                               ; preds = %71, %66, %41
  br label %75

75:                                               ; preds = %74, %13
  %76 = load i32, ptr %4, align 4, !tbaa !3
  call void @llvm.lifetime.end.p0(i64 1, ptr %5) #10
  call void @llvm.lifetime.end.p0(i64 4, ptr %4) #10
  call void @llvm.lifetime.end.p0(i64 8, ptr %3) #10
  ret i32 %76
}