; Function Attrs: nounwind uwtable
define internal range(i32 -1, 1) i32 @H5FD__splitter_fapl_free(ptr noundef %0) #0 {
  %2 = load i8, ptr @H5FD_init_g, align 1, !tbaa !3, !range !7, !noundef !8
  %3 = trunc nuw i8 %2 to i1
  %4 = load i8, ptr @H5_libterm_g, align 1, !range !7
  %5 = trunc nuw i8 %4 to i1
  %6 = xor i1 %5, true
  %7 = select i1 %3, i1 true, i1 %6
  br i1 %7, label %8, label %27, !prof !9

8:                                                ; preds = %1
  %9 = load i64, ptr %0, align 8, !tbaa !29
  %10 = tail call i32 @H5I_dec_ref(i64 noundef %9) #12
  %11 = icmp slt i32 %10, 0
  br i1 %11, label %12, label %16

12:                                               ; preds = %8
  %13 = load i64, ptr @H5E_VFL_g, align 8, !tbaa !10
  %14 = load i64, ptr @H5E_CANTDEC_g, align 8, !tbaa !10
  %15 = tail call i32 (ptr, ptr, i32, i64, i64, ptr, ...) @H5E_printf_stack(ptr noundef nonnull @.str, ptr noundef nonnull @__func__.H5FD__splitter_fapl_free, i32 noundef 740, i64 noundef %13, i64 noundef %14, ptr noundef nonnull @.str.23) #12
  br label %27

16:                                               ; preds = %8
  %17 = getelementptr inbounds nuw i8, ptr %0, i64 8
  %18 = load i64, ptr %17, align 8, !tbaa !30
  %19 = tail call i32 @H5I_dec_ref(i64 noundef %18) #12
  %20 = icmp slt i32 %19, 0
  br i1 %20, label %21, label %25

21:                                               ; preds = %16
  %22 = load i64, ptr @H5E_VFL_g, align 8, !tbaa !10
  %23 = load i64, ptr @H5E_CANTDEC_g, align 8, !tbaa !10
  %24 = tail call i32 (ptr, ptr, i32, i64, i64, ptr, ...) @H5E_printf_stack(ptr noundef nonnull @.str, ptr noundef nonnull @__func__.H5FD__splitter_fapl_free, i32 noundef 742, i64 noundef %22, i64 noundef %23, ptr noundef nonnull @.str.24) #12
  br label %27

25:                                               ; preds = %16
  %26 = tail call ptr @H5FL_reg_free(ptr noundef nonnull @H5_H5FD_splitter_fapl_t_reg_free_list, ptr noundef nonnull %0) #12
  br label %27

27:                                               ; preds = %12, %21, %25, %1
  %.0 = phi i32 [ -1, %12 ], [ -1, %21 ], [ 0, %25 ], [ 0, %1 ]
  ret i32 %.0
}